target datalayout = "e-m:e-p270:32:32-p271:32:32-p272:64:64-i64:64-i128:128-f80:128-n8:16:32:64-S128"
target triple = "x86_64-pc-linux-gnu"

%struct.expert_field = type { i32, i32 }

@hf_oran_udCompHdr = internal global i32 0, align 4
@.str.48 = private unnamed_addr constant [10 x i8] c"udCompHdr\00", align 1
@hf_oran_udCompHdrMeth = internal global i32 0, align 4
@hf_oran_udCompHdrIqWidth = internal global i32 0, align 4
@ett_oran_udcomphdr = internal global i32 0, align 4
@ei_oran_udpcomphdr_should_be_zero = internal global %struct.expert_field zeroinitializer, align 4
@.str.1165 = private unnamed_addr constant [1 x i8] zeroinitializer, align 1
@.str.1169 = private unnamed_addr constant [8 x i8] c"Unknown\00", align 1
@.str.1180 = private unnamed_addr constant [11 x i8] c" (ignored)\00", align 1
@.str.1189 = private unnamed_addr constant [11 x i8] c" (%u bits)\00", align 1
@.str.1190 = private unnamed_addr constant [29 x i8] c" (IqWidth=%u, udCompMeth=%s)\00", align 1
@.str.1191 = private unnamed_addr constant [53 x i8] c"udCompHdr in C-Plane for DL should be 0 - found %02x\00", align 1

; Function Attrs: null_pointer_is_valid sspstrong uwtable
define internal i32 @dissect_udcomphdr(ptr noundef %0, ptr noundef %1, ptr noundef %2, i32 noundef %3, i1 noundef zeroext %4, ptr noundef %5, ptr noundef %6, ptr noundef %7) #0 {
  %9 = alloca ptr, align 8
  %10 = alloca ptr, align 8
  %11 = alloca ptr, align 8
  %12 = alloca i32, align 4
  %13 = alloca i8, align 1
  %14 = alloca ptr, align 8
  %15 = alloca ptr, align 8
  %16 = alloca ptr, align 8
  %17 = alloca ptr, align 8
  %18 = alloca ptr, align 8
  %19 = alloca i32, align 4
  %20 = alloca ptr, align 8
  %21 = alloca i32, align 4
  store ptr %0, ptr %9, align 8
  store ptr %1, ptr %10, align 8
  store ptr %2, ptr %11, align 8
  store i32 %3, ptr %12, align 4
  %22 = zext i1 %4 to i8
  store i8 %22, ptr %13, align 1
  store ptr %5, ptr %14, align 8
  store ptr %6, ptr %15, align 8
  store ptr %7, ptr %16, align 8
  call void @llvm.lifetime.start.p0(i64 8, ptr %17) #12
  %23 = load ptr, ptr %11, align 8
  %24 = load i32, ptr @hf_oran_udCompHdr, align 4
  %25 = load ptr, ptr %9, align 8
  %26 = load i32, ptr %12, align 4
  %27 = call ptr (ptr, i32, ptr, i32, i32, ptr, ptr, ...) @proto_tree_add_string_format(ptr noundef %23, i32 noundef %24, ptr noundef %25, i32 noundef %26, i32 noundef 1, ptr noundef @.str.1165, ptr noundef @.str.48)
  store ptr %27, ptr %17, align 8
  call void @llvm.lifetime.start.p0(i64 8, ptr %18) #12
  %28 = load ptr, ptr %17, align 8
  %29 = load i32, ptr @ett_oran_udcomphdr, align 4
  %30 = call ptr @proto_item_add_subtree(ptr noundef %28, i32 noundef %29)
  store ptr %30, ptr %18, align 8
  call void @llvm.lifetime.start.p0(i64 4, ptr %19) #12
  call void @llvm.lifetime.start.p0(i64 8, ptr %20) #12
  %31 = load ptr, ptr %18, align 8
  %32 = load i32, ptr @hf_oran_udCompHdrIqWidth, align 4
  %33 = load ptr, ptr %9, align 8
  %34 = load i32, ptr %12, align 4
  %35 = call ptr @proto_tree_add_item_ret_uint(ptr noundef %31, i32 noundef %32, ptr noundef %33, i32 noundef %34, i32 noundef 1, i32 noundef 0, ptr noundef %19)
  store ptr %35, ptr %20, align 8
  %36 = load i32, ptr %19, align 4
  %37 = icmp ne i32 %36, 0
  br i1 %37, label %38, label %40

38:                                               ; preds = %8
  %39 = load i32, ptr %19, align 4
  br label %41

40:                                               ; preds = %8
  br label %41

41:                                               ; preds = %40, %38
  %42 = phi i32 [ %39, %38 ], [ 16, %40 ]
  %43 = load ptr, ptr %14, align 8
  store i32 %42, ptr %43, align 4
  %44 = load ptr, ptr %20, align 8
  %45 = load ptr, ptr %14, align 8
  %46 = load i32, ptr %45, align 4
  call void (ptr, ptr, ...) @proto_item_append_text(ptr noundef %44, ptr noundef @.str.1189, i32 noundef %46)
  call void @llvm.lifetime.start.p0(i64 4, ptr %21) #12
  %47 = load ptr, ptr %18, align 8
  %48 = load i32, ptr @hf_oran_udCompHdrMeth, align 4
  %49 = load ptr, ptr %9, align 8
  %50 = load i32, ptr %12, align 4
  %51 = call ptr @proto_tree_add_item_ret_uint(ptr noundef %47, i32 noundef %48, ptr noundef %49, i32 noundef %50, i32 noundef 1, i32 noundef 0, ptr noundef %21)
  %52 = load ptr, ptr %16, align 8
  store ptr %51, ptr %52, align 8
  %53 = load ptr, ptr %15, align 8
  %54 = icmp ne ptr %53, null
  br i1 %54, label %55, label %58

55:                                               ; preds = %41
  %56 = load i32, ptr %21, align 4
  %57 = load ptr, ptr %15, align 8
  store i32 %56, ptr %57, align 4
  br label %58

58:                                               ; preds = %55, %41
  %59 = load i8, ptr %13, align 1, !range !8, !noundef !9
  %60 = trunc i8 %59 to i1
  br i1 %60, label %67, label %61

61:                                               ; preds = %58
  %62 = load ptr, ptr %17, align 8
  %63 = load ptr, ptr %14, align 8
  %64 = load i32, ptr %63, align 4
  %65 = load i32, ptr %21, align 4
  %66 = call ptr @rval_to_str_const(i32 noundef %65, ptr noundef @ud_comp_header_meth, ptr noundef @.str.1169)
  call void (ptr, ptr, ...) @proto_item_append_text(ptr noundef %62, ptr noundef @.str.1190, i32 noundef %64, ptr noundef %66)
  br label %83

67:                                               ; preds = %58
  %68 = load ptr, ptr %17, align 8
  call void (ptr, ptr, ...) @proto_item_append_text(ptr noundef %68, ptr noundef @.str.1180)
  %69 = load i32, ptr %19, align 4
  %70 = icmp ne i32 %69, 0
  br i1 %70, label %74, label %71

71:                                               ; preds = %67
  %72 = load i32, ptr %21, align 4
  %73 = icmp ne i32 %72, 0
  br i1 %73, label %74, label %82

74:                                               ; preds = %71, %67
  %75 = load ptr, ptr %10, align 8
  %76 = load ptr, ptr %17, align 8
  %77 = load ptr, ptr %9, align 8
  %78 = load i32, ptr %12, align 4
  %79 = call zeroext i8 @tvb_get_uint8(ptr noundef %77, i32 noundef %78)
  %80 = zext i8 %79 to i32
  %81 = call ptr (ptr, ptr, ptr, ptr, ...) @expert_add_info_format(ptr noundef %75, ptr noundef %76, ptr noundef @ei_oran_udpcomphdr_should_be_zero, ptr noundef @.str.1191, i32 noundef %80)
  br label %82

82:                                               ; preds = %74, %71
  br label %83

83:                                               ; preds = %82, %61
  %84 = load i32, ptr %12, align 4
  %85 = add i32 %84, 1
  call void @llvm.lifetime.end.p0(i64 4, ptr %21) #12
  call void @llvm.lifetime.end.p0(i64 8, ptr %20) #12
  call void @llvm.lifetime.end.p0(i64 4, ptr %19) #12
  call void @llvm.lifetime.end.p0(i64 8, ptr %18) #12
  call void @llvm.lifetime.end.p0(i64 8, ptr %17) #12
  ret i32 %85
}