; Function Attrs: null_pointer_is_valid sspstrong uwtable
define internal fastcc noundef i32 @dissect_udcomphdr(ptr noundef %0, ptr noundef %1, ptr noundef %2, i32 noundef %3, i1 noundef zeroext %4, ptr noundef captures(none) initializes((0, 4)) %5, ptr noundef writeonly captures(address_is_null) %6, ptr noundef writeonly captures(none) initializes((0, 8)) %7) unnamed_addr #0 {
  %9 = alloca i32, align 4
  %10 = alloca i32, align 4
  %11 = load i32, ptr @hf_oran_udCompHdr, align 4
  %12 = tail call ptr (ptr, i32, ptr, i32, i32, ptr, ptr, ...) @proto_tree_add_string_format(ptr noundef %2, i32 noundef %11, ptr noundef %0, i32 noundef %3, i32 noundef 1, ptr noundef nonnull @.str.1165, ptr noundef nonnull @.str.48)
  %13 = load i32, ptr @ett_oran_udcomphdr, align 4
  %14 = tail call ptr @proto_item_add_subtree(ptr noundef %12, i32 noundef %13)
  call void @llvm.lifetime.start.p0(i64 4, ptr nonnull %9) #13
  %15 = load i32, ptr @hf_oran_udCompHdrIqWidth, align 4
  %16 = call ptr @proto_tree_add_item_ret_uint(ptr noundef %14, i32 noundef %15, ptr noundef %0, i32 noundef %3, i32 noundef 1, i32 noundef 0, ptr noundef nonnull %9)
  %17 = load i32, ptr %9, align 4
  %.not = icmp eq i32 %17, 0
  %18 = select i1 %.not, i32 16, i32 %17
  store i32 %18, ptr %5, align 4
  call void (ptr, ptr, ...) @proto_item_append_text(ptr noundef %16, ptr noundef nonnull @.str.1189, i32 noundef %18)
  call void @llvm.lifetime.start.p0(i64 4, ptr nonnull %10) #13
  %19 = load i32, ptr @hf_oran_udCompHdrMeth, align 4
  %20 = call ptr @proto_tree_add_item_ret_uint(ptr noundef %14, i32 noundef %19, ptr noundef %0, i32 noundef %3, i32 noundef 1, i32 noundef 0, ptr noundef nonnull %10)
  store ptr %20, ptr %7, align 8
  %.not25 = icmp eq ptr %6, null
  br i1 %.not25, label %23, label %21

21:                                               ; preds = %8
  %22 = load i32, ptr %10, align 4
  store i32 %22, ptr %6, align 4
  br label %23

23:                                               ; preds = %21, %8
  br i1 %4, label %28, label %24

24:                                               ; preds = %23
  %25 = load i32, ptr %5, align 4
  %26 = load i32, ptr %10, align 4
  %27 = call ptr @rval_to_str_const(i32 noundef %26, ptr noundef nonnull @ud_comp_header_meth, ptr noundef nonnull @.str.1169)
  call void (ptr, ptr, ...) @proto_item_append_text(ptr noundef %12, ptr noundef nonnull @.str.1190, i32 noundef %25, ptr noundef %27)
  br label %37

28:                                               ; preds = %23
  call void (ptr, ptr, ...) @proto_item_append_text(ptr noundef %12, ptr noundef nonnull @.str.1180)
  %29 = load i32, ptr %9, align 4
  %30 = icmp ne i32 %29, 0
  %31 = load i32, ptr %10, align 4
  %32 = icmp ne i32 %31, 0
  %or.cond = select i1 %30, i1 true, i1 %32
  br i1 %or.cond, label %33, label %37

33:                                               ; preds = %28
  %34 = call zeroext i8 @tvb_get_uint8(ptr noundef %0, i32 noundef %3)
  %35 = zext i8 %34 to i32
  %36 = call ptr (ptr, ptr, ptr, ptr, ...) @expert_add_info_format(ptr noundef %1, ptr noundef %12, ptr noundef nonnull @ei_oran_udpcomphdr_should_be_zero, ptr noundef nonnull @.str.1191, i32 noundef %35)
  br label %37

37:                                               ; preds = %33, %28, %24
  %38 = add i32 %3, 1
  call void @llvm.lifetime.end.p0(i64 4, ptr nonnull %10) #13
  call void @llvm.lifetime.end.p0(i64 4, ptr nonnull %9) #13
  ret i32 %38
}